target datalayout = "e-m:e-p270:32:32-p271:32:32-p272:64:64-i64:64-i128:128-f80:128-n8:16:32:64-S128"
target triple = "x86_64-pc-linux-gnu"

%"class.pxrInternal_v0_24__pxrReserved__::PcpPrimIndex" = type { %"class.pxrInternal_v0_24__pxrReserved__::TfRefPtr", %"class.std::vector", %"class.std::unique_ptr" }
%"class.pxrInternal_v0_24__pxrReserved__::TfRefPtr" = type { ptr }
%"class.std::vector" = type { %"struct.std::_Vector_base" }
%"struct.std::_Vector_base" = type { %"struct.std::_Vector_base<pxrInternal_v0_24__pxrReserved__::Pcp_CompressedSdSite, std::allocator<pxrInternal_v0_24__pxrReserved__::Pcp_CompressedSdSite>>::_Vector_impl" }
%"struct.std::_Vector_base<pxrInternal_v0_24__pxrReserved__::Pcp_CompressedSdSite, std::allocator<pxrInternal_v0_24__pxrReserved__::Pcp_CompressedSdSite>>::_Vector_impl" = type { %"struct.std::_Vector_base<pxrInternal_v0_24__pxrReserved__::Pcp_CompressedSdSite, std::allocator<pxrInternal_v0_24__pxrReserved__::Pcp_CompressedSdSite>>::_Vector_impl_data" }
%"struct.std::_Vector_base<pxrInternal_v0_24__pxrReserved__::Pcp_CompressedSdSite, std::allocator<pxrInternal_v0_24__pxrReserved__::Pcp_CompressedSdSite>>::_Vector_impl_data" = type { ptr, ptr, ptr }
%"class.std::unique_ptr" = type { %"struct.std::__uniq_ptr_data" }
%"struct.std::__uniq_ptr_data" = type { %"class.std::__uniq_ptr_impl" }
%"class.std::__uniq_ptr_impl" = type { %"class.std::tuple" }
%"class.std::tuple" = type { %"struct.std::_Tuple_impl" }
%"struct.std::_Tuple_impl" = type { %"struct.std::_Head_base.1" }
%"struct.std::_Head_base.1" = type { ptr }
%"class.pxrInternal_v0_24__pxrReserved__::PcpNodeRef" = type { ptr, i64 }
%"struct.std::pair.20" = type { %"class.pxrInternal_v0_24__pxrReserved__::PcpPrimIterator", %"class.pxrInternal_v0_24__pxrReserved__::PcpPrimIterator" }
%"class.pxrInternal_v0_24__pxrReserved__::PcpPrimIterator" = type { ptr, i64 }

; Function Attrs: mustprogress nounwind uwtable
define linkonce_odr void @_ZNSt4pairIN32pxrInternal_v0_24__pxrReserved__15PcpPrimIteratorES1_EC2IRS1_S4_TnNSt9enable_ifIXaaclsr5_PCCPE22_MoveConstructiblePairIT_T0_EEclsr5_PCCPE30_ImplicitlyMoveConvertiblePairIS6_S7_EEEbE4typeELb1EEEOS6_OS7_(ptr noundef nonnull align 8 dereferenceable(32) %0, ptr noundef nonnull align 8 dereferenceable(16) %1, ptr noundef nonnull align 8 dereferenceable(16) %2) unnamed_addr #5 comdat align 2 {
  %4 = alloca ptr, align 8
  %5 = alloca ptr, align 8
  %6 = alloca ptr, align 8
  store ptr %0, ptr %4, align 8
  store ptr %1, ptr %5, align 8
  store ptr %2, ptr %6, align 8
  %7 = load ptr, ptr %4, align 8
  %8 = getelementptr inbounds nuw %"struct.std::pair.20", ptr %7, i32 0, i32 0
  %9 = load ptr, ptr %5, align 8
  call void @llvm.memcpy.p0.p0.i64(ptr align 8 %8, ptr align 8 %9, i64 16, i1 false)
  %10 = getelementptr inbounds nuw %"struct.std::pair.20", ptr %7, i32 0, i32 1
  %11 = load ptr, ptr %6, align 8
  call void @llvm.memcpy.p0.p0.i64(ptr align 8 %10, ptr align 8 %11, i64 16, i1 false)
  ret void
}

; Function Attrs: mustprogress nounwind uwtable
define linkonce_odr noundef zeroext i1 @_ZNK32pxrInternal_v0_24__pxrReserved__10PcpNodeRefeqERKS0_(ptr noundef nonnull align 8 dereferenceable(16) %0, ptr noundef nonnull align 8 dereferenceable(16) %1) #5 comdat align 2 {
  %3 = alloca ptr, align 8
  %4 = alloca ptr, align 8
  store ptr %0, ptr %3, align 8
  store ptr %1, ptr %4, align 8
  %5 = load ptr, ptr %3, align 8
  %6 = getelementptr inbounds nuw %"class.pxrInternal_v0_24__pxrReserved__::PcpNodeRef", ptr %5, i32 0, i32 1
  %7 = load i64, ptr %6, align 8
  %8 = load ptr, ptr %4, align 8
  %9 = getelementptr inbounds nuw %"class.pxrInternal_v0_24__pxrReserved__::PcpNodeRef", ptr %8, i32 0, i32 1
  %10 = load i64, ptr %9, align 8
  %11 = icmp eq i64 %7, %10
  br i1 %11, label %12, label %19

12:                                               ; preds = %2
  %13 = getelementptr inbounds nuw %"class.pxrInternal_v0_24__pxrReserved__::PcpNodeRef", ptr %5, i32 0, i32 0
  %14 = load ptr, ptr %13, align 8
  %15 = load ptr, ptr %4, align 8
  %16 = getelementptr inbounds nuw %"class.pxrInternal_v0_24__pxrReserved__::PcpNodeRef", ptr %15, i32 0, i32 0
  %17 = load ptr, ptr %16, align 8
  %18 = icmp eq ptr %14, %17
  br label %19

19:                                               ; preds = %12, %2
  %20 = phi i1 [ false, %2 ], [ %18, %12 ]
  ret i1 %20
}

; Function Attrs: mustprogress uwtable
define linkonce_odr void @_ZNSt4pairIN32pxrInternal_v0_24__pxrReserved__15PcpPrimIteratorES1_EC2IS1_S1_TnNSt9enable_ifIXsr6__and_ISt37__is_implicitly_default_constructibleIT_ES5_IT0_EEE5valueEbE4typeELb1EEEv(ptr noundef nonnull align 8 dereferenceable(32) %0) unnamed_addr #4 comdat align 2 {
  %2 = alloca ptr, align 8
  store ptr %0, ptr %2, align 8
  %3 = load ptr, ptr %2, align 8
  %4 = getelementptr inbounds nuw %"struct.std::pair.20", ptr %3, i32 0, i32 0
  call void @_ZN32pxrInternal_v0_24__pxrReserved__15PcpPrimIteratorC1Ev(ptr noundef nonnull align 8 dereferenceable(16) %4)
  %5 = getelementptr inbounds nuw %"struct.std::pair.20", ptr %3, i32 0, i32 1
  call void @_ZN32pxrInternal_v0_24__pxrReserved__15PcpPrimIteratorC1Ev(ptr noundef nonnull align 8 dereferenceable(16) %5)
  ret void
}

; Function Attrs: mustprogress uwtable
define linkonce_odr noundef zeroext i1 @_ZNK32pxrInternal_v0_24__pxrReserved__15PcpPrimIteratoreqERKS0_(ptr noundef nonnull align 8 dereferenceable(16) %0, ptr noundef nonnull align 8 dereferenceable(16) %1) #4 comdat align 2 {
  %3 = alloca ptr, align 8
  %4 = alloca ptr, align 8
  store ptr %0, ptr %3, align 8
  store ptr %1, ptr %4, align 8
  %5 = load ptr, ptr %3, align 8
  %6 = load ptr, ptr %4, align 8
  %7 = call noundef zeroext i1 @_ZNK32pxrInternal_v0_24__pxrReserved__15PcpPrimIterator5equalERKS0_(ptr noundef nonnull align 8 dereferenceable(16) %5, ptr noundef nonnull align 8 dereferenceable(16) %6)
  ret i1 %7
}

; Function Attrs: mustprogress uwtable
define linkonce_odr noundef nonnull align 8 dereferenceable(16) ptr @_ZN32pxrInternal_v0_24__pxrReserved__15PcpPrimIteratorppEv(ptr noundef nonnull align 8 dereferenceable(16) %0) #4 comdat align 2 {
  %2 = alloca ptr, align 8
  store ptr %0, ptr %2, align 8
  %3 = load ptr, ptr %2, align 8
  call void @_ZN32pxrInternal_v0_24__pxrReserved__15PcpPrimIterator9incrementEv(ptr noundef nonnull align 8 dereferenceable(16) %3)
  ret ptr %3
}

; Function Attrs: mustprogress uwtable
define linkonce_odr noundef zeroext i1 @_ZNK32pxrInternal_v0_24__pxrReserved__10PcpNodeRefneERKS0_(ptr noundef nonnull align 8 dereferenceable(16) %0, ptr noundef nonnull align 8 dereferenceable(16) %1) #4 comdat align 2 {
  %3 = alloca ptr, align 8
  %4 = alloca ptr, align 8
  store ptr %0, ptr %3, align 8
  store ptr %1, ptr %4, align 8
  %5 = load ptr, ptr %3, align 8
  %6 = load ptr, ptr %4, align 8
  %7 = call noundef zeroext i1 @_ZNK32pxrInternal_v0_24__pxrReserved__10PcpNodeRefeqERKS0_(ptr noundef nonnull align 8 dereferenceable(16) %5, ptr noundef nonnull align 8 dereferenceable(16) %6)
  %8 = xor i1 %7, true
  ret i1 %8
}

; Function Attrs: mustprogress uwtable
define linkonce_odr noundef zeroext i1 @_ZNK32pxrInternal_v0_24__pxrReserved__15PcpPrimIteratorneERKS0_(ptr noundef nonnull align 8 dereferenceable(16) %0, ptr noundef nonnull align 8 dereferenceable(16) %1) #4 comdat align 2 {
  %3 = alloca ptr, align 8
  %4 = alloca ptr, align 8
  store ptr %0, ptr %3, align 8
  store ptr %1, ptr %4, align 8
  %5 = load ptr, ptr %3, align 8
  %6 = load ptr, ptr %4, align 8
  %7 = call noundef zeroext i1 @_ZNK32pxrInternal_v0_24__pxrReserved__15PcpPrimIterator5equalERKS0_(ptr noundef nonnull align 8 dereferenceable(16) %5, ptr noundef nonnull align 8 dereferenceable(16) %6)
  %8 = xor i1 %7, true
  ret i1 %8
}

; Function Attrs: mustprogress nounwind uwtable
define linkonce_odr noundef i64 @_ZNKSt6vectorIN32pxrInternal_v0_24__pxrReserved__20Pcp_CompressedSdSiteESaIS1_EE4sizeEv(ptr noundef nonnull align 8 dereferenceable(24) %0) #5 comdat align 2 {
  %2 = alloca ptr, align 8
  store ptr %0, ptr %2, align 8
  %3 = load ptr, ptr %2, align 8
  %4 = getelementptr inbounds nuw %"struct.std::_Vector_base", ptr %3, i32 0, i32 0
  %5 = getelementptr inbounds nuw %"struct.std::_Vector_base<pxrInternal_v0_24__pxrReserved__::Pcp_CompressedSdSite, std::allocator<pxrInternal_v0_24__pxrReserved__::Pcp_CompressedSdSite>>::_Vector_impl_data", ptr %4, i32 0, i32 1
  %6 = load ptr, ptr %5, align 8
  %7 = getelementptr inbounds nuw %"struct.std::_Vector_base", ptr %3, i32 0, i32 0
  %8 = getelementptr inbounds nuw %"struct.std::_Vector_base<pxrInternal_v0_24__pxrReserved__::Pcp_CompressedSdSite, std::allocator<pxrInternal_v0_24__pxrReserved__::Pcp_CompressedSdSite>>::_Vector_impl_data", ptr %7, i32 0, i32 0
  %9 = load ptr, ptr %8, align 8
  %10 = ptrtoint ptr %6 to i64
  %11 = ptrtoint ptr %9 to i64
  %12 = sub i64 %10, %11
  %13 = sdiv exact i64 %12, 4
  ret i64 %13
}

; Function Attrs: mustprogress uwtable
define void @_ZNK32pxrInternal_v0_24__pxrReserved__12PcpPrimIndex19GetPrimRangeForNodeERKNS_10PcpNodeRefE(ptr dead_on_unwind noalias writable sret(%"struct.std::pair.20") align 8 %0, ptr noundef nonnull align 8 dereferenceable(40) %1, ptr noundef nonnull align 8 dereferenceable(16) %2) #4 align 2 {
  %4 = alloca ptr, align 8
  %5 = alloca ptr, align 8
  %6 = alloca %"class.pxrInternal_v0_24__pxrReserved__::PcpPrimIterator", align 8
  %7 = alloca %"class.pxrInternal_v0_24__pxrReserved__::PcpPrimIterator", align 8
  %8 = alloca %"class.pxrInternal_v0_24__pxrReserved__::PcpNodeRef", align 8
  %9 = alloca %"class.pxrInternal_v0_24__pxrReserved__::PcpPrimIterator", align 8
  %10 = alloca %"class.pxrInternal_v0_24__pxrReserved__::PcpNodeRef", align 8
  store ptr %1, ptr %4, align 8
  store ptr %2, ptr %5, align 8
  %11 = load ptr, ptr %4, align 8
  call void @_ZN32pxrInternal_v0_24__pxrReserved__15PcpPrimIteratorC1EPKNS_12PcpPrimIndexEm(ptr noundef nonnull align 8 dereferenceable(16) %6, ptr noundef %11, i64 noundef 0)
  %12 = getelementptr inbounds nuw %"class.pxrInternal_v0_24__pxrReserved__::PcpPrimIndex", ptr %11, i32 0, i32 1
  %13 = call noundef i64 @_ZNKSt6vectorIN32pxrInternal_v0_24__pxrReserved__20Pcp_CompressedSdSiteESaIS1_EE4sizeEv(ptr noundef nonnull align 8 dereferenceable(24) %12) #3
  call void @_ZN32pxrInternal_v0_24__pxrReserved__15PcpPrimIteratorC1EPKNS_12PcpPrimIndexEm(ptr noundef nonnull align 8 dereferenceable(16) %7, ptr noundef %11, i64 noundef %13)
  br label %14

14:                                               ; preds = %26, %3
  %15 = call noundef zeroext i1 @_ZNK32pxrInternal_v0_24__pxrReserved__15PcpPrimIteratorneERKS0_(ptr noundef nonnull align 8 dereferenceable(16) %6, ptr noundef nonnull align 8 dereferenceable(16) %7)
  br i1 %15, label %16, label %24

16:                                               ; preds = %14
  %17 = call { ptr, i64 } @_ZNK32pxrInternal_v0_24__pxrReserved__15PcpPrimIterator7GetNodeEv(ptr noundef nonnull align 8 dereferenceable(16) %6)
  %18 = getelementptr inbounds nuw { ptr, i64 }, ptr %8, i32 0, i32 0
  %19 = extractvalue { ptr, i64 } %17, 0
  store ptr %19, ptr %18, align 8
  %20 = getelementptr inbounds nuw { ptr, i64 }, ptr %8, i32 0, i32 1
  %21 = extractvalue { ptr, i64 } %17, 1
  store i64 %21, ptr %20, align 8
  %22 = load ptr, ptr %5, align 8
  %23 = call noundef zeroext i1 @_ZNK32pxrInternal_v0_24__pxrReserved__10PcpNodeRefneERKS0_(ptr noundef nonnull align 8 dereferenceable(16) %8, ptr noundef nonnull align 8 dereferenceable(16) %22)
  br label %24

24:                                               ; preds = %16, %14
  %25 = phi i1 [ false, %14 ], [ %23, %16 ]
  br i1 %25, label %26, label %28

26:                                               ; preds = %24
  %27 = call noundef nonnull align 8 dereferenceable(16) ptr @_ZN32pxrInternal_v0_24__pxrReserved__15PcpPrimIteratorppEv(ptr noundef nonnull align 8 dereferenceable(16) %6)
  br label %14, !llvm.loop !7

28:                                               ; preds = %24
  %29 = call noundef zeroext i1 @_ZNK32pxrInternal_v0_24__pxrReserved__15PcpPrimIteratoreqERKS0_(ptr noundef nonnull align 8 dereferenceable(16) %6, ptr noundef nonnull align 8 dereferenceable(16) %7)
  br i1 %29, label %30, label %31

30:                                               ; preds = %28
  call void @_ZNSt4pairIN32pxrInternal_v0_24__pxrReserved__15PcpPrimIteratorES1_EC2IS1_S1_TnNSt9enable_ifIXsr6__and_ISt37__is_implicitly_default_constructibleIT_ES5_IT0_EEE5valueEbE4typeELb1EEEv(ptr noundef nonnull align 8 dereferenceable(32) %0)
  br label %47

31:                                               ; preds = %28
  call void @llvm.memcpy.p0.p0.i64(ptr align 8 %9, ptr align 8 %6, i64 16, i1 false)
  br label %32

32:                                               ; preds = %45, %31
  %33 = call noundef nonnull align 8 dereferenceable(16) ptr @_ZN32pxrInternal_v0_24__pxrReserved__15PcpPrimIteratorppEv(ptr noundef nonnull align 8 dereferenceable(16) %9)
  %34 = call noundef zeroext i1 @_ZNK32pxrInternal_v0_24__pxrReserved__15PcpPrimIteratorneERKS0_(ptr noundef nonnull align 8 dereferenceable(16) %33, ptr noundef nonnull align 8 dereferenceable(16) %7)
  br i1 %34, label %35, label %43

35:                                               ; preds = %32
  %36 = call { ptr, i64 } @_ZNK32pxrInternal_v0_24__pxrReserved__15PcpPrimIterator7GetNodeEv(ptr noundef nonnull align 8 dereferenceable(16) %9)
  %37 = getelementptr inbounds nuw { ptr, i64 }, ptr %10, i32 0, i32 0
  %38 = extractvalue { ptr, i64 } %36, 0
  store ptr %38, ptr %37, align 8
  %39 = getelementptr inbounds nuw { ptr, i64 }, ptr %10, i32 0, i32 1
  %40 = extractvalue { ptr, i64 } %36, 1
  store i64 %40, ptr %39, align 8
  %41 = load ptr, ptr %5, align 8
  %42 = call noundef zeroext i1 @_ZNK32pxrInternal_v0_24__pxrReserved__10PcpNodeRefeqERKS0_(ptr noundef nonnull align 8 dereferenceable(16) %10, ptr noundef nonnull align 8 dereferenceable(16) %41)
  br label %43

43:                                               ; preds = %35, %32
  %44 = phi i1 [ false, %32 ], [ %42, %35 ]
  br i1 %44, label %45, label %46

45:                                               ; preds = %43
  br label %32, !llvm.loop !8

46:                                               ; preds = %43
  call void @_ZNSt4pairIN32pxrInternal_v0_24__pxrReserved__15PcpPrimIteratorES1_EC2IRS1_S4_TnNSt9enable_ifIXaaclsr5_PCCPE22_MoveConstructiblePairIT_T0_EEclsr5_PCCPE30_ImplicitlyMoveConvertiblePairIS6_S7_EEEbE4typeELb1EEEOS6_OS7_(ptr noundef nonnull align 8 dereferenceable(32) %0, ptr noundef nonnull align 8 dereferenceable(16) %6, ptr noundef nonnull align 8 dereferenceable(16) %9)
  br label %47

47:                                               ; preds = %46, %30
  ret void
}