; Function Attrs: mustprogress uwtable
define void @_ZNK32pxrInternal_v0_24__pxrReserved__12PcpPrimIndex19GetPrimRangeForNodeERKNS_10PcpNodeRefE(ptr dead_on_unwind noalias writable sret(%"struct.std::pair.20") align 8 %0, ptr noundef nonnull align 8 dereferenceable(40) %1, ptr nocapture noundef nonnull readonly align 8 dereferenceable(16) %2) local_unnamed_addr #3 align 2 {
  %4 = alloca %"class.pxrInternal_v0_24__pxrReserved__::PcpPrimIterator", align 8
  %5 = alloca %"class.pxrInternal_v0_24__pxrReserved__::PcpPrimIterator", align 8
  %6 = alloca %"class.pxrInternal_v0_24__pxrReserved__::PcpPrimIterator", align 8
  call void @_ZN32pxrInternal_v0_24__pxrReserved__15PcpPrimIteratorC1EPKNS_12PcpPrimIndexEm(ptr noundef nonnull align 8 dereferenceable(16) %4, ptr noundef nonnull %1, i64 noundef 0)
  %7 = getelementptr inbounds nuw i8, ptr %1, i64 8
  %8 = getelementptr inbounds i8, ptr %1, i64 16
  %9 = load ptr, ptr %8, align 8
  %10 = load ptr, ptr %7, align 8
  %11 = ptrtoint ptr %9 to i64
  %12 = ptrtoint ptr %10 to i64
  %13 = sub i64 %11, %12
  %14 = ashr exact i64 %13, 2
  call void @_ZN32pxrInternal_v0_24__pxrReserved__15PcpPrimIteratorC1EPKNS_12PcpPrimIndexEm(ptr noundef nonnull align 8 dereferenceable(16) %5, ptr noundef nonnull %1, i64 noundef %14)
  %15 = call noundef zeroext i1 @_ZNK32pxrInternal_v0_24__pxrReserved__15PcpPrimIterator5equalERKS0_(ptr noundef nonnull align 8 dereferenceable(16) %4, ptr noundef nonnull align 8 dereferenceable(16) %5)
  br i1 %15, label %.critedge, label %.lr.ph

.lr.ph:                                           ; preds = %3
  %16 = getelementptr inbounds nuw i8, ptr %2, i64 8
  br label %17

17:                                               ; preds = %.lr.ph, %25
  %18 = call { ptr, i64 } @_ZNK32pxrInternal_v0_24__pxrReserved__15PcpPrimIterator7GetNodeEv(ptr noundef nonnull align 8 dereferenceable(16) %4)
  %19 = extractvalue { ptr, i64 } %18, 0
  %20 = extractvalue { ptr, i64 } %18, 1
  %21 = load i64, ptr %16, align 8
  %22 = icmp ne i64 %20, %21
  %23 = load ptr, ptr %2, align 8
  %24 = icmp ne ptr %19, %23
  %.not3.i = select i1 %22, i1 true, i1 %24
  br i1 %.not3.i, label %25, label %.critedge

25:                                               ; preds = %17
  call void @_ZN32pxrInternal_v0_24__pxrReserved__15PcpPrimIterator9incrementEv(ptr noundef nonnull align 8 dereferenceable(16) %4)
  %26 = call noundef zeroext i1 @_ZNK32pxrInternal_v0_24__pxrReserved__15PcpPrimIterator5equalERKS0_(ptr noundef nonnull align 8 dereferenceable(16) %4, ptr noundef nonnull align 8 dereferenceable(16) %5)
  br i1 %26, label %.critedge, label %17, !llvm.loop !12

.critedge:                                        ; preds = %17, %25, %3
  %27 = call noundef zeroext i1 @_ZNK32pxrInternal_v0_24__pxrReserved__15PcpPrimIterator5equalERKS0_(ptr noundef nonnull align 8 dereferenceable(16) %4, ptr noundef nonnull align 8 dereferenceable(16) %5)
  br i1 %27, label %28, label %30

28:                                               ; preds = %.critedge
  call void @_ZN32pxrInternal_v0_24__pxrReserved__15PcpPrimIteratorC1Ev(ptr noundef nonnull align 8 dereferenceable(16) %0)
  %29 = getelementptr inbounds nuw i8, ptr %0, i64 16
  call void @_ZN32pxrInternal_v0_24__pxrReserved__15PcpPrimIteratorC1Ev(ptr noundef nonnull align 8 dereferenceable(16) %29)
  br label %44

30:                                               ; preds = %.critedge
  call void @llvm.memcpy.p0.p0.i64(ptr noundef nonnull align 8 dereferenceable(16) %6, ptr noundef nonnull align 8 dereferenceable(16) %4, i64 16, i1 false)
  %31 = getelementptr inbounds nuw i8, ptr %2, i64 8
  br label %32

32:                                               ; preds = %34, %30
  call void @_ZN32pxrInternal_v0_24__pxrReserved__15PcpPrimIterator9incrementEv(ptr noundef nonnull align 8 dereferenceable(16) %6)
  %33 = call noundef zeroext i1 @_ZNK32pxrInternal_v0_24__pxrReserved__15PcpPrimIterator5equalERKS0_(ptr noundef nonnull align 8 dereferenceable(16) %6, ptr noundef nonnull align 8 dereferenceable(16) %5)
  br i1 %33, label %.critedge2, label %34

34:                                               ; preds = %32
  %35 = call { ptr, i64 } @_ZNK32pxrInternal_v0_24__pxrReserved__15PcpPrimIterator7GetNodeEv(ptr noundef nonnull align 8 dereferenceable(16) %6)
  %36 = extractvalue { ptr, i64 } %35, 0
  %37 = extractvalue { ptr, i64 } %35, 1
  %38 = load i64, ptr %31, align 8
  %39 = icmp eq i64 %37, %38
  %40 = load ptr, ptr %2, align 8
  %41 = icmp eq ptr %36, %40
  %42 = select i1 %39, i1 %41, i1 false
  br i1 %42, label %32, label %.critedge2, !llvm.loop !13

.critedge2:                                       ; preds = %32, %34
  call void @llvm.memcpy.p0.p0.i64(ptr noundef nonnull align 8 dereferenceable(16) %0, ptr noundef nonnull align 8 dereferenceable(16) %4, i64 16, i1 false)
  %43 = getelementptr inbounds nuw i8, ptr %0, i64 16
  call void @llvm.memcpy.p0.p0.i64(ptr noundef nonnull align 8 dereferenceable(16) %43, ptr noundef nonnull align 8 dereferenceable(16) %6, i64 16, i1 false)
  br label %44

44:                                               ; preds = %.critedge2, %28
  ret void
}